target datalayout = "e-m:e-p270:32:32-p271:32:32-p272:64:64-i64:64-i128:128-f80:128-n8:16:32:64-S128"
target triple = "x86_64-pc-linux-gnu"

@wal_sync_method = dso_local global i32 1, align 4
@wal_segment_size = dso_local global i32 16777216, align 4
@.str.14 = private unnamed_addr constant [7 x i8] c"xlog.c\00", align 1
@enableFsync = external global i8, align 1
@openLogFile = internal global i32 -1, align 4
@openLogSegNo = internal global i64 0, align 8
@openLogTLI = internal global i32 0, align 4
@.str.76 = private unnamed_addr constant [30 x i8] c"could not fsync file \22%s\22: %m\00", align 1
@__func__.assign_wal_sync_method = private unnamed_addr constant [23 x i8] c"assign_wal_sync_method\00", align 1
@.str.78 = private unnamed_addr constant [35 x i8] c"unrecognized \22wal_sync_method\22: %d\00", align 1
@io_direct_flags = external global i32, align 4
@my_wait_event_info = external global ptr, align 8
@MyBackendType = external global i32, align 4
@__func__.get_sync_bit = private unnamed_addr constant [13 x i8] c"get_sync_bit\00", align 1

; Function Attrs: nounwind uwtable
define internal i32 @get_sync_bit(i32 noundef %0) #0 {
  %2 = alloca i32, align 4
  %3 = alloca i32, align 4
  %4 = alloca i32, align 4
  %5 = alloca i32, align 4
  store i32 %0, ptr %3, align 4
  call void @llvm.lifetime.start.p0(i64 4, ptr %4) #16
  store i32 0, ptr %4, align 4
  %6 = load i32, ptr @io_direct_flags, align 4
  %7 = and i32 %6, 2
  %8 = icmp ne i32 %7, 0
  br i1 %8, label %9, label %13

9:                                                ; preds = %1
  %10 = load i32, ptr @MyBackendType, align 4
  %11 = icmp eq i32 %10, 13
  br i1 %11, label %13, label %12

12:                                               ; preds = %9
  store i32 16384, ptr %4, align 4
  br label %13

13:                                               ; preds = %12, %9, %1
  %14 = load i8, ptr @enableFsync, align 1, !range !4, !noundef !5
  %15 = trunc i8 %14 to i1
  br i1 %15, label %18, label %16

16:                                               ; preds = %13
  %17 = load i32, ptr %4, align 4
  store i32 %17, ptr %2, align 4
  store i32 1, ptr %5, align 4
  br label %40

18:                                               ; preds = %13
  %19 = load i32, ptr %3, align 4
  switch i32 %19, label %28 [
    i32 0, label %20
    i32 3, label %20
    i32 1, label %20
    i32 2, label %22
    i32 4, label %25
  ]

20:                                               ; preds = %18, %18, %18
  %21 = load i32, ptr %4, align 4
  store i32 %21, ptr %2, align 4
  store i32 1, ptr %5, align 4
  br label %40

22:                                               ; preds = %18
  %23 = load i32, ptr %4, align 4
  %24 = or i32 1052672, %23
  store i32 %24, ptr %2, align 4
  store i32 1, ptr %5, align 4
  br label %40

25:                                               ; preds = %18
  %26 = load i32, ptr %4, align 4
  %27 = or i32 4096, %26
  store i32 %27, ptr %2, align 4
  store i32 1, ptr %5, align 4
  br label %40

28:                                               ; preds = %18
  br label %29

29:                                               ; preds = %28
  br i1 true, label %30, label %32

30:                                               ; preds = %29
  %31 = call zeroext i1 @errstart_cold(i32 noundef 21, ptr noundef null) #17
  br i1 %31, label %34, label %37

32:                                               ; preds = %29
  %33 = call zeroext i1 @errstart(i32 noundef 21, ptr noundef null)
  br i1 %33, label %34, label %37

34:                                               ; preds = %32, %30
  %35 = load i32, ptr %3, align 4
  %36 = call i32 (ptr, ...) @errmsg_internal(ptr noundef @.str.78, i32 noundef %35)
  call void @errfinish(ptr noundef @.str.14, i32 noundef 8653, ptr noundef @__func__.get_sync_bit)
  br label %37

37:                                               ; preds = %34, %32, %30
  unreachable

38:                                               ; No predecessors!
  br label %39

39:                                               ; preds = %38
  store i32 0, ptr %2, align 4
  store i32 1, ptr %5, align 4
  br label %40

40:                                               ; preds = %39, %25, %22, %20, %16
  call void @llvm.lifetime.end.p0(i64 4, ptr %4) #16
  %41 = load i32, ptr %2, align 4
  ret i32 %41
}

; Function Attrs: inlinehint nounwind uwtable
define internal void @pgstat_report_wait_end() #6 {
  %1 = load ptr, ptr @my_wait_event_info, align 8
  store volatile i32 0, ptr %1, align 4
  ret void
}

; Function Attrs: inlinehint nounwind uwtable
define internal void @pgstat_report_wait_start(i32 noundef %0) #6 {
  %2 = alloca i32, align 4
  store i32 %0, ptr %2, align 4
  %3 = load i32, ptr %2, align 4
  %4 = load ptr, ptr @my_wait_event_info, align 8
  store volatile i32 %3, ptr %4, align 4
  ret void
}

; Function Attrs: nounwind uwtable
define dso_local void @assign_wal_sync_method(i32 noundef %0, ptr noundef %1) #0 {
  %3 = alloca i32, align 4
  %4 = alloca ptr, align 8
  %5 = alloca [64 x i8], align 16
  %6 = alloca i32, align 4
  store i32 %0, ptr %3, align 4
  store ptr %1, ptr %4, align 8
  %7 = load i32, ptr @wal_sync_method, align 4
  %8 = load i32, ptr %3, align 4
  %9 = icmp ne i32 %7, %8
  br i1 %9, label %10, label %47

10:                                               ; preds = %2
  %11 = load i32, ptr @openLogFile, align 4
  %12 = icmp sge i32 %11, 0
  br i1 %12, label %13, label %46

13:                                               ; preds = %10
  call void @pgstat_report_wait_start(i32 noundef 167772235)
  %14 = load i32, ptr @openLogFile, align 4
  %15 = call i32 @pg_fsync(i32 noundef %14)
  %16 = icmp ne i32 %15, 0
  br i1 %16, label %17, label %38

17:                                               ; preds = %13
  call void @llvm.lifetime.start.p0(i64 64, ptr %5) #16
  call void @llvm.lifetime.start.p0(i64 4, ptr %6) #16
  %18 = call ptr @__errno_location() #18
  %19 = load i32, ptr %18, align 4
  store i32 %19, ptr %6, align 4
  %20 = getelementptr inbounds [64 x i8], ptr %5, i64 0, i64 0
  %21 = load i32, ptr @openLogTLI, align 4
  %22 = load i64, ptr @openLogSegNo, align 8
  %23 = load i32, ptr @wal_segment_size, align 4
  call void @XLogFileName(ptr noundef %20, i32 noundef %21, i64 noundef %22, i32 noundef %23)
  %24 = load i32, ptr %6, align 4
  %25 = call ptr @__errno_location() #18
  store i32 %24, ptr %25, align 4
  br label %26

26:                                               ; preds = %17
  br i1 true, label %27, label %29

27:                                               ; preds = %26
  %28 = call zeroext i1 @errstart_cold(i32 noundef 23, ptr noundef null) #17
  br i1 %28, label %31, label %35

29:                                               ; preds = %26
  %30 = call zeroext i1 @errstart(i32 noundef 23, ptr noundef null)
  br i1 %30, label %31, label %35

31:                                               ; preds = %29, %27
  %32 = call i32 @errcode_for_file_access()
  %33 = getelementptr inbounds [64 x i8], ptr %5, i64 0, i64 0
  %34 = call i32 (ptr, ...) @errmsg(ptr noundef @.str.76, ptr noundef %33)
  call void @errfinish(ptr noundef @.str.14, i32 noundef 8686, ptr noundef @__func__.assign_wal_sync_method)
  br label %35

35:                                               ; preds = %31, %29, %27
  unreachable

36:                                               ; No predecessors!
  br label %37

37:                                               ; preds = %36
  call void @llvm.lifetime.end.p0(i64 4, ptr %6) #16
  call void @llvm.lifetime.end.p0(i64 64, ptr %5) #16
  br label %38

38:                                               ; preds = %37, %13
  call void @pgstat_report_wait_end()
  %39 = load i32, ptr @wal_sync_method, align 4
  %40 = call i32 @get_sync_bit(i32 noundef %39)
  %41 = load i32, ptr %3, align 4
  %42 = call i32 @get_sync_bit(i32 noundef %41)
  %43 = icmp ne i32 %40, %42
  br i1 %43, label %44, label %45

44:                                               ; preds = %38
  call void @XLogFileClose()
  br label %45

45:                                               ; preds = %44, %38
  br label %46

46:                                               ; preds = %45, %10
  br label %47

47:                                               ; preds = %46, %2
  ret void
}