; Function Attrs: nounwind uwtable
define dso_local void @assign_wal_sync_method(i32 noundef %0, ptr noundef readnone captures(none) %1) local_unnamed_addr #0 {
  %3 = alloca [64 x i8], align 16
  %4 = load i32, ptr @wal_sync_method, align 4
  %5 = icmp ne i32 %4, %0
  %6 = load i32, ptr @openLogFile, align 4
  %7 = icmp sgt i32 %6, -1
  %or.cond = select i1 %5, i1 %7, i1 false
  br i1 %or.cond, label %8, label %get_sync_bit.exit8.thread

8:                                                ; preds = %2
  %9 = load ptr, ptr @my_wait_event_info, align 8
  store volatile i32 167772235, ptr %9, align 4
  %10 = tail call i32 @pg_fsync(i32 noundef %6) #26
  %.not = icmp eq i32 %10, 0
  br i1 %.not, label %20, label %11

11:                                               ; preds = %8
  call void @llvm.lifetime.start.p0(i64 64, ptr nonnull %3) #26
  %12 = tail call ptr @__errno_location() #28
  %13 = load i32, ptr %12, align 4
  %14 = load i32, ptr @openLogTLI, align 4
  %15 = load i64, ptr @openLogSegNo, align 8
  %16 = load i32, ptr @wal_segment_size, align 4
  call fastcc void @XLogFileName(ptr noundef %3, i32 noundef %14, i64 noundef %15, i32 noundef %16)
  store i32 %13, ptr %12, align 4
  %17 = call zeroext i1 @errstart_cold(i32 noundef 23, ptr noundef null) #27
  call void @llvm.assume(i1 %17)
  %18 = call i32 @errcode_for_file_access() #26
  %19 = call i32 (ptr, ...) @errmsg(ptr noundef nonnull @.str.76, ptr noundef nonnull %3) #26
  call void @errfinish(ptr noundef nonnull @.str.14, i32 noundef 8686, ptr noundef nonnull @__func__.assign_wal_sync_method) #26
  unreachable

20:                                               ; preds = %8
  %21 = load ptr, ptr @my_wait_event_info, align 8
  store volatile i32 0, ptr %21, align 4
  %22 = load i32, ptr @wal_sync_method, align 4
  %23 = load i32, ptr @io_direct_flags, align 4
  %24 = and i32 %23, 2
  %25 = icmp eq i32 %24, 0
  %26 = load i32, ptr @MyBackendType, align 4
  %27 = icmp eq i32 %26, 13
  %or.cond.i = select i1 %25, i1 true, i1 %27
  %spec.store.select.i = select i1 %or.cond.i, i32 0, i32 16384
  %28 = load i8, ptr @enableFsync, align 1, !range !4, !noundef !5
  %29 = trunc nuw i8 %28 to i1
  br i1 %29, label %30, label %get_sync_bit.exit8.thread

30:                                               ; preds = %20
  switch i32 %22, label %35 [
    i32 0, label %38
    i32 3, label %38
    i32 1, label %38
    i32 2, label %31
    i32 4, label %33
  ]

31:                                               ; preds = %30
  %32 = or disjoint i32 %spec.store.select.i, 1052672
  br label %38

33:                                               ; preds = %30
  %34 = or disjoint i32 %spec.store.select.i, 4096
  br label %38

35:                                               ; preds = %30
  %36 = tail call zeroext i1 @errstart_cold(i32 noundef 21, ptr noundef null) #27
  tail call void @llvm.assume(i1 %36)
  %37 = tail call i32 (ptr, ...) @errmsg_internal(ptr noundef nonnull @.str.78, i32 noundef %22) #26
  tail call void @errfinish(ptr noundef nonnull @.str.14, i32 noundef 8653, ptr noundef nonnull @__func__.get_sync_bit) #26
  unreachable

38:                                               ; preds = %30, %30, %30, %31, %33
  %.0.i.ph = phi i32 [ %spec.store.select.i, %30 ], [ %spec.store.select.i, %30 ], [ %spec.store.select.i, %30 ], [ %32, %31 ], [ %34, %33 ]
  switch i32 %0, label %43 [
    i32 0, label %get_sync_bit.exit8
    i32 3, label %get_sync_bit.exit8
    i32 1, label %get_sync_bit.exit8
    i32 2, label %39
    i32 4, label %41
  ]

39:                                               ; preds = %38
  %40 = or disjoint i32 %spec.store.select.i, 1052672
  br label %get_sync_bit.exit8

41:                                               ; preds = %38
  %42 = or disjoint i32 %spec.store.select.i, 4096
  br label %get_sync_bit.exit8

43:                                               ; preds = %38
  %44 = tail call zeroext i1 @errstart_cold(i32 noundef 21, ptr noundef null) #27
  tail call void @llvm.assume(i1 %44)
  %45 = tail call i32 (ptr, ...) @errmsg_internal(ptr noundef nonnull @.str.78, i32 noundef %0) #26
  tail call void @errfinish(ptr noundef nonnull @.str.14, i32 noundef 8653, ptr noundef nonnull @__func__.get_sync_bit) #26
  unreachable

get_sync_bit.exit8:                               ; preds = %38, %38, %38, %39, %41
  %.0.i7 = phi i32 [ %42, %41 ], [ %40, %39 ], [ %spec.store.select.i, %38 ], [ %spec.store.select.i, %38 ], [ %spec.store.select.i, %38 ]
  %.not4 = icmp eq i32 %.0.i.ph, %.0.i7
  br i1 %.not4, label %get_sync_bit.exit8.thread, label %46

46:                                               ; preds = %get_sync_bit.exit8
  tail call fastcc void @XLogFileClose()
  br label %get_sync_bit.exit8.thread

get_sync_bit.exit8.thread:                        ; preds = %20, %46, %get_sync_bit.exit8, %2
  ret void
}